target datalayout = "e-m:e-p270:32:32-p271:32:32-p272:64:64-i64:64-i128:128-f80:128-n8:16:32:64-S128"
target triple = "x86_64-pc-linux-gnu"

%struct.asn1_string_st = type { i32, i32, ptr, i64 }

@.str = private unnamed_addr constant [34 x i8] c"../openssl/crypto/ec/ec_backend.c\00", align 1
@__func__.ossl_ec_key_param_from_x509_algor = private unnamed_addr constant [34 x i8] c"ossl_ec_key_param_from_x509_algor\00", align 1

; Function Attrs: nounwind uwtable
define ptr @ossl_ec_key_param_from_x509_algor(ptr noundef %0, ptr noundef %1, ptr noundef %2) #0 {
  %4 = alloca ptr, align 8
  %5 = alloca ptr, align 8
  %6 = alloca ptr, align 8
  %7 = alloca ptr, align 8
  %8 = alloca i32, align 4
  %9 = alloca ptr, align 8
  %10 = alloca ptr, align 8
  %11 = alloca ptr, align 8
  %12 = alloca ptr, align 8
  %13 = alloca ptr, align 8
  %14 = alloca i32, align 4
  %15 = alloca i32, align 4
  %16 = alloca ptr, align 8
  store ptr %0, ptr %5, align 8, !tbaa !71
  store ptr %1, ptr %6, align 8, !tbaa !29
  store ptr %2, ptr %7, align 8, !tbaa !3
  call void @llvm.lifetime.start.p0(i64 4, ptr %8) #3
  store i32 0, ptr %8, align 4, !tbaa !16
  call void @llvm.lifetime.start.p0(i64 8, ptr %9) #3
  store ptr null, ptr %9, align 8, !tbaa !73
  call void @llvm.lifetime.start.p0(i64 8, ptr %10) #3
  store ptr null, ptr %10, align 8, !tbaa !18
  call void @llvm.lifetime.start.p0(i64 8, ptr %11) #3
  store ptr null, ptr %11, align 8, !tbaa !23
  %17 = load ptr, ptr %5, align 8, !tbaa !71
  call void @X509_ALGOR_get0(ptr noundef null, ptr noundef %8, ptr noundef %9, ptr noundef %17)
  %18 = load ptr, ptr %6, align 8, !tbaa !29
  %19 = load ptr, ptr %7, align 8, !tbaa !3
  %20 = call ptr @EC_KEY_new_ex(ptr noundef %18, ptr noundef %19)
  store ptr %20, ptr %10, align 8, !tbaa !18
  %21 = icmp eq ptr %20, null
  br i1 %21, label %22, label %23

22:                                               ; preds = %3
  call void @ERR_new()
  call void @ERR_set_debug(ptr noundef @.str, i32 noundef 770, ptr noundef @__func__.ossl_ec_key_param_from_x509_algor)
  call void (i32, i32, ptr, ...) @ERR_set_error(i32 noundef 16, i32 noundef 524304, ptr noundef null)
  br label %72

23:                                               ; preds = %3
  %24 = load i32, ptr %8, align 4, !tbaa !16
  %25 = icmp eq i32 %24, 16
  br i1 %25, label %26, label %43

26:                                               ; preds = %23
  call void @llvm.lifetime.start.p0(i64 8, ptr %12) #3
  %27 = load ptr, ptr %9, align 8, !tbaa !73
  store ptr %27, ptr %12, align 8, !tbaa !74
  call void @llvm.lifetime.start.p0(i64 8, ptr %13) #3
  %28 = load ptr, ptr %12, align 8, !tbaa !74
  %29 = getelementptr inbounds nuw %struct.asn1_string_st, ptr %28, i32 0, i32 2
  %30 = load ptr, ptr %29, align 8, !tbaa !76
  store ptr %30, ptr %13, align 8, !tbaa !3
  call void @llvm.lifetime.start.p0(i64 4, ptr %14) #3
  %31 = load ptr, ptr %12, align 8, !tbaa !74
  %32 = getelementptr inbounds nuw %struct.asn1_string_st, ptr %31, i32 0, i32 0
  %33 = load i32, ptr %32, align 8, !tbaa !78
  store i32 %33, ptr %14, align 4, !tbaa !16
  %34 = load i32, ptr %14, align 4, !tbaa !16
  %35 = sext i32 %34 to i64
  %36 = call ptr @d2i_ECParameters(ptr noundef %10, ptr noundef %13, i64 noundef %35)
  %37 = icmp eq ptr %36, null
  br i1 %37, label %38, label %39

38:                                               ; preds = %26
  call void @ERR_new()
  call void @ERR_set_debug(ptr noundef @.str, i32 noundef 781, ptr noundef @__func__.ossl_ec_key_param_from_x509_algor)
  call void (i32, i32, ptr, ...) @ERR_set_error(i32 noundef 16, i32 noundef 142, ptr noundef null)
  store i32 2, ptr %15, align 4
  br label %40

39:                                               ; preds = %26
  store i32 0, ptr %15, align 4
  br label %40

40:                                               ; preds = %38, %39
  call void @llvm.lifetime.end.p0(i64 4, ptr %14) #3
  call void @llvm.lifetime.end.p0(i64 8, ptr %13) #3
  call void @llvm.lifetime.end.p0(i64 8, ptr %12) #3
  %41 = load i32, ptr %15, align 4
  switch i32 %41, label %75 [
    i32 0, label %42
    i32 2, label %72
  ]

42:                                               ; preds = %40
  br label %70

43:                                               ; preds = %23
  %44 = load i32, ptr %8, align 4, !tbaa !16
  %45 = icmp eq i32 %44, 6
  br i1 %45, label %46, label %68

46:                                               ; preds = %43
  call void @llvm.lifetime.start.p0(i64 8, ptr %16) #3
  %47 = load ptr, ptr %9, align 8, !tbaa !73
  store ptr %47, ptr %16, align 8, !tbaa !79
  %48 = load ptr, ptr %6, align 8, !tbaa !29
  %49 = load ptr, ptr %7, align 8, !tbaa !3
  %50 = load ptr, ptr %16, align 8, !tbaa !79
  %51 = call i32 @OBJ_obj2nid(ptr noundef %50)
  %52 = call ptr @EC_GROUP_new_by_curve_name_ex(ptr noundef %48, ptr noundef %49, i32 noundef %51)
  store ptr %52, ptr %11, align 8, !tbaa !23
  %53 = load ptr, ptr %11, align 8, !tbaa !23
  %54 = icmp eq ptr %53, null
  br i1 %54, label %55, label %56

55:                                               ; preds = %46
  store i32 2, ptr %15, align 4
  br label %65

56:                                               ; preds = %46
  %57 = load ptr, ptr %11, align 8, !tbaa !23
  call void @EC_GROUP_set_asn1_flag(ptr noundef %57, i32 noundef 1)
  %58 = load ptr, ptr %10, align 8, !tbaa !18
  %59 = load ptr, ptr %11, align 8, !tbaa !23
  %60 = call i32 @EC_KEY_set_group(ptr noundef %58, ptr noundef %59)
  %61 = icmp eq i32 %60, 0
  br i1 %61, label %62, label %63

62:                                               ; preds = %56
  store i32 2, ptr %15, align 4
  br label %65

63:                                               ; preds = %56
  %64 = load ptr, ptr %11, align 8, !tbaa !23
  call void @EC_GROUP_free(ptr noundef %64)
  store i32 0, ptr %15, align 4
  br label %65

65:                                               ; preds = %62, %55, %63
  call void @llvm.lifetime.end.p0(i64 8, ptr %16) #3
  %66 = load i32, ptr %15, align 4
  switch i32 %66, label %75 [
    i32 0, label %67
    i32 2, label %72
  ]

67:                                               ; preds = %65
  br label %69

68:                                               ; preds = %43
  call void @ERR_new()
  call void @ERR_set_debug(ptr noundef @.str, i32 noundef 799, ptr noundef @__func__.ossl_ec_key_param_from_x509_algor)
  call void (i32, i32, ptr, ...) @ERR_set_error(i32 noundef 16, i32 noundef 142, ptr noundef null)
  br label %72

69:                                               ; preds = %67
  br label %70

70:                                               ; preds = %69, %42
  %71 = load ptr, ptr %10, align 8, !tbaa !18
  store ptr %71, ptr %4, align 8
  store i32 1, ptr %15, align 4
  br label %75

72:                                               ; preds = %65, %40, %68, %22
  %73 = load ptr, ptr %10, align 8, !tbaa !18
  call void @EC_KEY_free(ptr noundef %73)
  %74 = load ptr, ptr %11, align 8, !tbaa !23
  call void @EC_GROUP_free(ptr noundef %74)
  store ptr null, ptr %4, align 8
  store i32 1, ptr %15, align 4
  br label %75

75:                                               ; preds = %72, %70, %65, %40
  call void @llvm.lifetime.end.p0(i64 8, ptr %11) #3
  call void @llvm.lifetime.end.p0(i64 8, ptr %10) #3
  call void @llvm.lifetime.end.p0(i64 8, ptr %9) #3
  call void @llvm.lifetime.end.p0(i64 4, ptr %8) #3
  %76 = load ptr, ptr %4, align 8
  ret ptr %76
}