; Function Attrs: nounwind uwtable
define ptr @ossl_ec_key_param_from_x509_algor(ptr noundef %0, ptr noundef %1, ptr noundef %2) local_unnamed_addr #0 {
  %4 = alloca i32, align 4
  %5 = alloca ptr, align 8
  %6 = alloca ptr, align 8
  %7 = alloca ptr, align 8
  call void @llvm.lifetime.start.p0(i64 4, ptr nonnull %4) #4
  store i32 0, ptr %4, align 4, !tbaa !29
  call void @llvm.lifetime.start.p0(i64 8, ptr nonnull %5) #4
  store ptr null, ptr %5, align 8, !tbaa !56
  call void @llvm.lifetime.start.p0(i64 8, ptr nonnull %6) #4
  call void @X509_ALGOR_get0(ptr noundef null, ptr noundef nonnull %4, ptr noundef nonnull %5, ptr noundef %0) #4
  %8 = call ptr @EC_KEY_new_ex(ptr noundef %1, ptr noundef %2) #4
  store ptr %8, ptr %6, align 8, !tbaa !60
  %9 = icmp eq ptr %8, null
  br i1 %9, label %10, label %11

10:                                               ; preds = %3
  call void @ERR_new() #4
  call void @ERR_set_debug(ptr noundef nonnull @.str, i32 noundef 770, ptr noundef nonnull @__func__.ossl_ec_key_param_from_x509_algor) #4
  call void (i32, i32, ptr, ...) @ERR_set_error(i32 noundef 16, i32 noundef 524304, ptr noundef null) #4
  br label %.thread26

11:                                               ; preds = %3
  %12 = load i32, ptr %4, align 4, !tbaa !29
  switch i32 %12, label %31 [
    i32 16, label %13
    i32 6, label %22
  ]

13:                                               ; preds = %11
  %14 = load ptr, ptr %5, align 8, !tbaa !56
  call void @llvm.lifetime.start.p0(i64 8, ptr nonnull %7) #4
  %15 = getelementptr inbounds nuw i8, ptr %14, i64 8
  %16 = load ptr, ptr %15, align 8, !tbaa !57
  store ptr %16, ptr %7, align 8, !tbaa !26
  %17 = load i32, ptr %14, align 8, !tbaa !59
  %18 = sext i32 %17 to i64
  %19 = call ptr @d2i_ECParameters(ptr noundef nonnull %6, ptr noundef nonnull %7, i64 noundef %18) #4
  %20 = icmp eq ptr %19, null
  br i1 %20, label %21, label %.thread

.thread:                                          ; preds = %13
  call void @llvm.lifetime.end.p0(i64 8, ptr nonnull %7) #4
  %.pre = load ptr, ptr %6, align 8, !tbaa !60
  br label %33

21:                                               ; preds = %13
  call void @ERR_new() #4
  call void @ERR_set_debug(ptr noundef nonnull @.str, i32 noundef 781, ptr noundef nonnull @__func__.ossl_ec_key_param_from_x509_algor) #4
  call void (i32, i32, ptr, ...) @ERR_set_error(i32 noundef 16, i32 noundef 142, ptr noundef null) #4
  call void @llvm.lifetime.end.p0(i64 8, ptr nonnull %7) #4
  %.pre29 = load ptr, ptr %6, align 8, !tbaa !60
  br label %.thread26

22:                                               ; preds = %11
  %23 = load ptr, ptr %5, align 8, !tbaa !56
  %24 = call i32 @OBJ_obj2nid(ptr noundef %23) #4
  %25 = call ptr @EC_GROUP_new_by_curve_name_ex(ptr noundef %1, ptr noundef %2, i32 noundef %24) #4
  %26 = icmp eq ptr %25, null
  br i1 %26, label %.thread26, label %27

27:                                               ; preds = %22
  call void @EC_GROUP_set_asn1_flag(ptr noundef nonnull %25, i32 noundef 1) #4
  %28 = call i32 @EC_KEY_set_group(ptr noundef nonnull %8, ptr noundef nonnull %25) #4
  %29 = icmp eq i32 %28, 0
  br i1 %29, label %.thread26, label %30

30:                                               ; preds = %27
  call void @EC_GROUP_free(ptr noundef nonnull %25) #4
  br label %33

31:                                               ; preds = %11
  call void @ERR_new() #4
  call void @ERR_set_debug(ptr noundef nonnull @.str, i32 noundef 799, ptr noundef nonnull @__func__.ossl_ec_key_param_from_x509_algor) #4
  call void (i32, i32, ptr, ...) @ERR_set_error(i32 noundef 16, i32 noundef 142, ptr noundef null) #4
  br label %.thread26

.thread26:                                        ; preds = %27, %22, %21, %31, %10
  %32 = phi ptr [ null, %10 ], [ %.pre29, %21 ], [ %8, %31 ], [ %8, %22 ], [ %8, %27 ]
  %.017 = phi ptr [ null, %10 ], [ null, %21 ], [ null, %31 ], [ null, %22 ], [ %25, %27 ]
  call void @EC_KEY_free(ptr noundef %32) #4
  call void @EC_GROUP_free(ptr noundef %.017) #4
  br label %33

33:                                               ; preds = %.thread, %30, %.thread26
  %.0 = phi ptr [ null, %.thread26 ], [ %8, %30 ], [ %.pre, %.thread ]
  call void @llvm.lifetime.end.p0(i64 8, ptr nonnull %6) #4
  call void @llvm.lifetime.end.p0(i64 8, ptr nonnull %5) #4
  call void @llvm.lifetime.end.p0(i64 4, ptr nonnull %4) #4
  ret ptr %.0
}